target datalayout = "e-m:e-p270:32:32-p271:32:32-p272:64:64-i64:64-i128:128-f80:128-n8:16:32:64-S128"
target triple = "x86_64-pc-linux-gnu"

@.str.4 = private unnamed_addr constant [21 x i8] c"unknown process type\00", align 1
@.str.5 = private unnamed_addr constant [16 x i8] c"not initialized\00", align 1
@.str.6 = private unnamed_addr constant [9 x i8] c"archiver\00", align 1
@.str.7 = private unnamed_addr constant [20 x i8] c"autovacuum launcher\00", align 1
@.str.8 = private unnamed_addr constant [18 x i8] c"autovacuum worker\00", align 1
@.str.9 = private unnamed_addr constant [15 x i8] c"client backend\00", align 1
@.str.10 = private unnamed_addr constant [24 x i8] c"dead-end client backend\00", align 1
@.str.11 = private unnamed_addr constant [18 x i8] c"background worker\00", align 1
@.str.12 = private unnamed_addr constant [18 x i8] c"background writer\00", align 1
@.str.13 = private unnamed_addr constant [13 x i8] c"checkpointer\00", align 1
@.str.14 = private unnamed_addr constant [7 x i8] c"logger\00", align 1
@.str.15 = private unnamed_addr constant [16 x i8] c"slotsync worker\00", align 1
@.str.16 = private unnamed_addr constant [19 x i8] c"standalone backend\00", align 1
@.str.17 = private unnamed_addr constant [8 x i8] c"startup\00", align 1
@.str.18 = private unnamed_addr constant [12 x i8] c"walreceiver\00", align 1
@.str.19 = private unnamed_addr constant [10 x i8] c"walsender\00", align 1
@.str.20 = private unnamed_addr constant [14 x i8] c"walsummarizer\00", align 1
@.str.21 = private unnamed_addr constant [10 x i8] c"walwriter\00", align 1

; Function Attrs: nounwind uwtable
define dso_local ptr @GetBackendTypeDesc(i32 noundef %0) #0 {
  %2 = alloca i32, align 4
  %3 = alloca ptr, align 8
  store i32 %0, ptr %2, align 4
  call void @llvm.lifetime.start.p0(i64 8, ptr %3) #12
  store ptr @.str.4, ptr %3, align 8
  %4 = load i32, ptr %2, align 4
  switch i32 %4, label %22 [
    i32 0, label %5
    i32 9, label %6
    i32 3, label %7
    i32 4, label %8
    i32 1, label %9
    i32 2, label %10
    i32 5, label %11
    i32 10, label %12
    i32 11, label %13
    i32 16, label %14
    i32 7, label %15
    i32 8, label %16
    i32 12, label %17
    i32 13, label %18
    i32 6, label %19
    i32 14, label %20
    i32 15, label %21
  ]

5:                                                ; preds = %1
  store ptr @.str.5, ptr %3, align 8
  br label %22

6:                                                ; preds = %1
  store ptr @.str.6, ptr %3, align 8
  br label %22

7:                                                ; preds = %1
  store ptr @.str.7, ptr %3, align 8
  br label %22

8:                                                ; preds = %1
  store ptr @.str.8, ptr %3, align 8
  br label %22

9:                                                ; preds = %1
  store ptr @.str.9, ptr %3, align 8
  br label %22

10:                                               ; preds = %1
  store ptr @.str.10, ptr %3, align 8
  br label %22

11:                                               ; preds = %1
  store ptr @.str.11, ptr %3, align 8
  br label %22

12:                                               ; preds = %1
  store ptr @.str.12, ptr %3, align 8
  br label %22

13:                                               ; preds = %1
  store ptr @.str.13, ptr %3, align 8
  br label %22

14:                                               ; preds = %1
  store ptr @.str.14, ptr %3, align 8
  br label %22

15:                                               ; preds = %1
  store ptr @.str.15, ptr %3, align 8
  br label %22

16:                                               ; preds = %1
  store ptr @.str.16, ptr %3, align 8
  br label %22

17:                                               ; preds = %1
  store ptr @.str.17, ptr %3, align 8
  br label %22

18:                                               ; preds = %1
  store ptr @.str.18, ptr %3, align 8
  br label %22

19:                                               ; preds = %1
  store ptr @.str.19, ptr %3, align 8
  br label %22

20:                                               ; preds = %1
  store ptr @.str.20, ptr %3, align 8
  br label %22

21:                                               ; preds = %1
  store ptr @.str.21, ptr %3, align 8
  br label %22

22:                                               ; preds = %1, %21, %20, %19, %18, %17, %16, %15, %14, %13, %12, %11, %10, %9, %8, %7, %6, %5
  %23 = load ptr, ptr %3, align 8
  call void @llvm.lifetime.end.p0(i64 8, ptr %3) #12
  ret ptr %23
}