; Function Attrs: mustprogress nofree norecurse nosync nounwind willreturn memory(none) uwtable
define dso_local noundef nonnull ptr @GetBackendTypeDesc(i32 noundef %0) local_unnamed_addr #5 {
  %2 = icmp ult i32 %0, 17
  br i1 %2, label %switch.lookup, label %4

switch.lookup:                                    ; preds = %1
  %3 = zext nneg i32 %0 to i64
  %switch.gep = getelementptr inbounds nuw [17 x ptr], ptr @switch.table.GetBackendTypeDesc, i64 0, i64 %3
  %switch.load = load ptr, ptr %switch.gep, align 8
  br label %4

4:                                                ; preds = %switch.lookup, %1
  %.0 = phi ptr [ @.str.4, %1 ], [ %switch.load, %switch.lookup ]
  ret ptr %.0
}